target datalayout = "e-m:e-p270:32:32-p271:32:32-p272:64:64-i64:64-i128:128-f80:128-n8:16:32:64-S128"
target triple = "x86_64-pc-linux-gnu"

%struct.Node = type { i32 }
%struct.List = type { i32, i32, i32, ptr, [0 x %union.ListCell] }
%union.ListCell = type { ptr }
%struct.PlannerInfo = type { i32, ptr, ptr, i32, ptr, ptr, ptr, ptr, i32, ptr, ptr, ptr, ptr, ptr, ptr, ptr, ptr, i32, ptr, ptr, ptr, ptr, ptr, i8, ptr, ptr, ptr, ptr, ptr, i32, ptr, ptr, ptr, ptr, ptr, ptr, ptr, i32, ptr, ptr, ptr, i32, ptr, ptr, ptr, ptr, ptr, ptr, [8 x ptr], [8 x ptr], ptr, ptr, ptr, ptr, ptr, ptr, ptr, double, double, double, i32, i8, i8, i8, i8, i8, i8, i8, i32, ptr, ptr, i32, i8, i8, i32, ptr, ptr, ptr, ptr, ptr, ptr, i8, ptr }
%struct.RelOptInfo = type { i32, i32, ptr, double, i8, i8, i8, ptr, ptr, ptr, ptr, ptr, ptr, ptr, ptr, ptr, ptr, i32, i32, i32, i16, i16, ptr, ptr, ptr, ptr, ptr, ptr, ptr, ptr, i32, double, double, ptr, ptr, ptr, i32, i32, i32, i32, i8, ptr, ptr, ptr, ptr, ptr, %struct.QualCost, i32, ptr, i8, i8, ptr, ptr, ptr, ptr, i32, ptr, i8, ptr, ptr, ptr, ptr, ptr, ptr }
%struct.QualCost = type { double, double }
%struct.RangeTblEntry = type { i32, ptr, ptr, i32, i32, i8, i8, i32, i32, ptr, ptr, i8, i32, i32, ptr, ptr, ptr, ptr, ptr, i8, ptr, ptr, ptr, i32, i8, ptr, ptr, ptr, ptr, double, ptr, i8, i8, ptr }
%struct.Expr = type { i32 }
%struct.RestrictInfo = type { i32, ptr, i8, i8, i8, i8, i8, i8, i32, i32, i32, ptr, ptr, ptr, ptr, ptr, ptr, ptr, i32, ptr, %struct.QualCost, double, double, ptr, ptr, ptr, ptr, ptr, ptr, i8, i32, double, double, double, double, i32, i32 }
%struct.OpExpr = type { %struct.Expr, i32, i32, i32, i8, i32, i32, ptr, i32 }

@.str.1 = private unnamed_addr constant [12 x i8] c"initsplan.c\00", align 1
@.str.2 = private unnamed_addr constant [38 x i8] c"cannot cope with variable-free clause\00", align 1
@__func__.distribute_restrictinfo_to_rels = private unnamed_addr constant [32 x i8] c"distribute_restrictinfo_to_rels\00", align 1

; Function Attrs: inlinehint nounwind uwtable
define internal ptr @list_nth_cell(ptr noundef %0, i32 noundef %1) #5 {
  %3 = alloca ptr, align 8
  %4 = alloca i32, align 4
  store ptr %0, ptr %3, align 8
  store i32 %1, ptr %4, align 4
  %5 = load ptr, ptr %3, align 8
  %6 = getelementptr inbounds nuw %struct.List, ptr %5, i32 0, i32 3
  %7 = load ptr, ptr %6, align 8
  %8 = load i32, ptr %4, align 4
  %9 = sext i32 %8 to i64
  %10 = getelementptr inbounds %union.ListCell, ptr %7, i64 %9
  ret ptr %10
}

; Function Attrs: inlinehint nounwind uwtable
define internal i32 @list_length(ptr noundef %0) #5 {
  %2 = alloca ptr, align 8
  store ptr %0, ptr %2, align 8
  %3 = load ptr, ptr %2, align 8
  %4 = icmp ne ptr %3, null
  br i1 %4, label %5, label %9

5:                                                ; preds = %1
  %6 = load ptr, ptr %2, align 8
  %7 = getelementptr inbounds nuw %struct.List, ptr %6, i32 0, i32 1
  %8 = load i32, ptr %7, align 4
  br label %10

9:                                                ; preds = %1
  br label %10

10:                                               ; preds = %9, %5
  %11 = phi i32 [ %8, %5 ], [ 0, %9 ]
  ret i32 %11
}

; Function Attrs: inlinehint nounwind uwtable
define internal zeroext i1 @is_opclause(ptr noundef %0) #5 {
  %2 = alloca ptr, align 8
  store ptr %0, ptr %2, align 8
  %3 = load ptr, ptr %2, align 8
  %4 = icmp ne ptr %3, null
  br i1 %4, label %5, label %10

5:                                                ; preds = %1
  %6 = load ptr, ptr %2, align 8
  %7 = getelementptr inbounds nuw %struct.Node, ptr %6, i32 0, i32 0
  %8 = load i32, ptr %7, align 4
  %9 = icmp eq i32 %8, 17
  br label %10

10:                                               ; preds = %5, %1
  %11 = phi i1 [ false, %1 ], [ %9, %5 ]
  ret i1 %11
}

; Function Attrs: nounwind uwtable
define internal void @check_hashjoinable(ptr noundef %0) #0 {
  %2 = alloca ptr, align 8
  %3 = alloca ptr, align 8
  %4 = alloca i32, align 4
  %5 = alloca ptr, align 8
  %6 = alloca i32, align 4
  store ptr %0, ptr %2, align 8
  call void @llvm.lifetime.start.p0(i64 8, ptr %3) #6
  %7 = load ptr, ptr %2, align 8
  %8 = getelementptr inbounds nuw %struct.RestrictInfo, ptr %7, i32 0, i32 1
  %9 = load ptr, ptr %8, align 8
  store ptr %9, ptr %3, align 8
  call void @llvm.lifetime.start.p0(i64 4, ptr %4) #6
  call void @llvm.lifetime.start.p0(i64 8, ptr %5) #6
  %10 = load ptr, ptr %2, align 8
  %11 = getelementptr inbounds nuw %struct.RestrictInfo, ptr %10, i32 0, i32 4
  %12 = load i8, ptr %11, align 2, !range !6, !noundef !7
  %13 = trunc i8 %12 to i1
  br i1 %13, label %14, label %15

14:                                               ; preds = %1
  store i32 1, ptr %6, align 4
  br label %47

15:                                               ; preds = %1
  %16 = load ptr, ptr %3, align 8
  %17 = call zeroext i1 @is_opclause(ptr noundef %16)
  br i1 %17, label %19, label %18

18:                                               ; preds = %15
  store i32 1, ptr %6, align 4
  br label %47

19:                                               ; preds = %15
  %20 = load ptr, ptr %3, align 8
  %21 = getelementptr inbounds nuw %struct.OpExpr, ptr %20, i32 0, i32 7
  %22 = load ptr, ptr %21, align 8
  %23 = call i32 @list_length(ptr noundef %22)
  %24 = icmp ne i32 %23, 2
  br i1 %24, label %25, label %26

25:                                               ; preds = %19
  store i32 1, ptr %6, align 4
  br label %47

26:                                               ; preds = %19
  %27 = load ptr, ptr %3, align 8
  %28 = getelementptr inbounds nuw %struct.OpExpr, ptr %27, i32 0, i32 1
  %29 = load i32, ptr %28, align 4
  store i32 %29, ptr %4, align 4
  %30 = load ptr, ptr %3, align 8
  %31 = getelementptr inbounds nuw %struct.OpExpr, ptr %30, i32 0, i32 7
  %32 = load ptr, ptr %31, align 8
  %33 = call ptr @list_nth_cell(ptr noundef %32, i32 noundef 0)
  %34 = load ptr, ptr %33, align 8
  store ptr %34, ptr %5, align 8
  %35 = load i32, ptr %4, align 4
  %36 = load ptr, ptr %5, align 8
  %37 = call i32 @exprType(ptr noundef %36)
  %38 = call zeroext i1 @op_hashjoinable(i32 noundef %35, i32 noundef %37)
  br i1 %38, label %39, label %46

39:                                               ; preds = %26
  %40 = load ptr, ptr %2, align 8
  %41 = call zeroext i1 @contain_volatile_functions(ptr noundef %40)
  br i1 %41, label %46, label %42

42:                                               ; preds = %39
  %43 = load i32, ptr %4, align 4
  %44 = load ptr, ptr %2, align 8
  %45 = getelementptr inbounds nuw %struct.RestrictInfo, ptr %44, i32 0, i32 30
  store i32 %43, ptr %45, align 4
  br label %46

46:                                               ; preds = %42, %39, %26
  store i32 0, ptr %6, align 4
  br label %47

47:                                               ; preds = %46, %25, %18, %14
  call void @llvm.lifetime.end.p0(i64 8, ptr %5) #6
  call void @llvm.lifetime.end.p0(i64 4, ptr %4) #6
  call void @llvm.lifetime.end.p0(i64 8, ptr %3) #6
  %48 = load i32, ptr %6, align 4
  switch i32 %48, label %50 [
    i32 0, label %49
    i32 1, label %49
  ]

49:                                               ; preds = %47, %47
  ret void

50:                                               ; preds = %47
  unreachable
}

; Function Attrs: nounwind uwtable
define internal void @add_base_clause_to_rel(ptr noundef %0, i32 noundef %1, ptr noundef %2) #0 {
  %4 = alloca ptr, align 8
  %5 = alloca i32, align 4
  %6 = alloca ptr, align 8
  %7 = alloca ptr, align 8
  %8 = alloca ptr, align 8
  %9 = alloca i32, align 4
  %10 = alloca i32, align 4
  %11 = alloca i32, align 4
  store ptr %0, ptr %4, align 8
  store i32 %1, ptr %5, align 4
  store ptr %2, ptr %6, align 8
  call void @llvm.lifetime.start.p0(i64 8, ptr %7) #6
  %12 = load ptr, ptr %4, align 8
  %13 = load i32, ptr %5, align 4
  %14 = call ptr @find_base_rel(ptr noundef %12, i32 noundef %13)
  store ptr %14, ptr %7, align 8
  call void @llvm.lifetime.start.p0(i64 8, ptr %8) #6
  %15 = load ptr, ptr %4, align 8
  %16 = getelementptr inbounds nuw %struct.PlannerInfo, ptr %15, i32 0, i32 9
  %17 = load ptr, ptr %16, align 8
  %18 = load i32, ptr %5, align 4
  %19 = zext i32 %18 to i64
  %20 = getelementptr inbounds nuw ptr, ptr %17, i64 %19
  %21 = load ptr, ptr %20, align 8
  store ptr %21, ptr %8, align 8
  %22 = load ptr, ptr %8, align 8
  %23 = getelementptr inbounds nuw %struct.RangeTblEntry, ptr %22, i32 0, i32 5
  %24 = load i8, ptr %23, align 8, !range !6, !noundef !7
  %25 = trunc i8 %24 to i1
  br i1 %25, label %26, label %32

26:                                               ; preds = %3
  %27 = load ptr, ptr %8, align 8
  %28 = getelementptr inbounds nuw %struct.RangeTblEntry, ptr %27, i32 0, i32 6
  %29 = load i8, ptr %28, align 1
  %30 = sext i8 %29 to i32
  %31 = icmp eq i32 %30, 112
  br i1 %31, label %32, label %83

32:                                               ; preds = %26, %3
  %33 = load ptr, ptr %4, align 8
  %34 = load ptr, ptr %6, align 8
  %35 = call zeroext i1 @restriction_is_always_true(ptr noundef %33, ptr noundef %34)
  br i1 %35, label %36, label %37

36:                                               ; preds = %32
  store i32 1, ptr %9, align 4
  br label %110

37:                                               ; preds = %32
  %38 = load ptr, ptr %4, align 8
  %39 = load ptr, ptr %6, align 8
  %40 = call zeroext i1 @restriction_is_always_false(ptr noundef %38, ptr noundef %39)
  br i1 %40, label %41, label %82

41:                                               ; preds = %37
  call void @llvm.lifetime.start.p0(i64 4, ptr %10) #6
  %42 = load ptr, ptr %6, align 8
  %43 = getelementptr inbounds nuw %struct.RestrictInfo, ptr %42, i32 0, i32 18
  %44 = load i32, ptr %43, align 8
  store i32 %44, ptr %10, align 4
  call void @llvm.lifetime.start.p0(i64 4, ptr %11) #6
  %45 = load ptr, ptr %4, align 8
  %46 = getelementptr inbounds nuw %struct.PlannerInfo, ptr %45, i32 0, i32 29
  %47 = load i32, ptr %46, align 8
  store i32 %47, ptr %11, align 4
  %48 = load ptr, ptr %4, align 8
  %49 = call ptr @makeBoolConst(i1 noundef zeroext false, i1 noundef zeroext false)
  %50 = load ptr, ptr %6, align 8
  %51 = getelementptr inbounds nuw %struct.RestrictInfo, ptr %50, i32 0, i32 2
  %52 = load i8, ptr %51, align 8, !range !6, !noundef !7
  %53 = trunc i8 %52 to i1
  %54 = load ptr, ptr %6, align 8
  %55 = getelementptr inbounds nuw %struct.RestrictInfo, ptr %54, i32 0, i32 5
  %56 = load i8, ptr %55, align 1, !range !6, !noundef !7
  %57 = trunc i8 %56 to i1
  %58 = load ptr, ptr %6, align 8
  %59 = getelementptr inbounds nuw %struct.RestrictInfo, ptr %58, i32 0, i32 6
  %60 = load i8, ptr %59, align 4, !range !6, !noundef !7
  %61 = trunc i8 %60 to i1
  %62 = load ptr, ptr %6, align 8
  %63 = getelementptr inbounds nuw %struct.RestrictInfo, ptr %62, i32 0, i32 4
  %64 = load i8, ptr %63, align 2, !range !6, !noundef !7
  %65 = trunc i8 %64 to i1
  %66 = load ptr, ptr %6, align 8
  %67 = getelementptr inbounds nuw %struct.RestrictInfo, ptr %66, i32 0, i32 12
  %68 = load ptr, ptr %67, align 8
  %69 = load ptr, ptr %6, align 8
  %70 = getelementptr inbounds nuw %struct.RestrictInfo, ptr %69, i32 0, i32 13
  %71 = load ptr, ptr %70, align 8
  %72 = load ptr, ptr %6, align 8
  %73 = getelementptr inbounds nuw %struct.RestrictInfo, ptr %72, i32 0, i32 14
  %74 = load ptr, ptr %73, align 8
  %75 = call ptr @make_restrictinfo(ptr noundef %48, ptr noundef %49, i1 noundef zeroext %53, i1 noundef zeroext %57, i1 noundef zeroext %61, i1 noundef zeroext %65, i32 noundef 0, ptr noundef %68, ptr noundef %71, ptr noundef %74)
  store ptr %75, ptr %6, align 8
  %76 = load i32, ptr %10, align 4
  %77 = load ptr, ptr %6, align 8
  %78 = getelementptr inbounds nuw %struct.RestrictInfo, ptr %77, i32 0, i32 18
  store i32 %76, ptr %78, align 8
  %79 = load i32, ptr %11, align 4
  %80 = load ptr, ptr %4, align 8
  %81 = getelementptr inbounds nuw %struct.PlannerInfo, ptr %80, i32 0, i32 29
  store i32 %79, ptr %81, align 8
  call void @llvm.lifetime.end.p0(i64 4, ptr %11) #6
  call void @llvm.lifetime.end.p0(i64 4, ptr %10) #6
  br label %82

82:                                               ; preds = %41, %37
  br label %83

83:                                               ; preds = %82, %26
  %84 = load ptr, ptr %7, align 8
  %85 = getelementptr inbounds nuw %struct.RelOptInfo, ptr %84, i32 0, i32 45
  %86 = load ptr, ptr %85, align 8
  %87 = load ptr, ptr %6, align 8
  %88 = call ptr @lappend(ptr noundef %86, ptr noundef %87)
  %89 = load ptr, ptr %7, align 8
  %90 = getelementptr inbounds nuw %struct.RelOptInfo, ptr %89, i32 0, i32 45
  store ptr %88, ptr %90, align 8
  %91 = load ptr, ptr %7, align 8
  %92 = getelementptr inbounds nuw %struct.RelOptInfo, ptr %91, i32 0, i32 47
  %93 = load i32, ptr %92, align 8
  %94 = load ptr, ptr %6, align 8
  %95 = getelementptr inbounds nuw %struct.RestrictInfo, ptr %94, i32 0, i32 9
  %96 = load i32, ptr %95, align 4
  %97 = icmp ult i32 %93, %96
  br i1 %97, label %98, label %102

98:                                               ; preds = %83
  %99 = load ptr, ptr %7, align 8
  %100 = getelementptr inbounds nuw %struct.RelOptInfo, ptr %99, i32 0, i32 47
  %101 = load i32, ptr %100, align 8
  br label %106

102:                                              ; preds = %83
  %103 = load ptr, ptr %6, align 8
  %104 = getelementptr inbounds nuw %struct.RestrictInfo, ptr %103, i32 0, i32 9
  %105 = load i32, ptr %104, align 4
  br label %106

106:                                              ; preds = %102, %98
  %107 = phi i32 [ %101, %98 ], [ %105, %102 ]
  %108 = load ptr, ptr %7, align 8
  %109 = getelementptr inbounds nuw %struct.RelOptInfo, ptr %108, i32 0, i32 47
  store i32 %107, ptr %109, align 8
  store i32 0, ptr %9, align 4
  br label %110

110:                                              ; preds = %106, %36
  call void @llvm.lifetime.end.p0(i64 8, ptr %8) #6
  call void @llvm.lifetime.end.p0(i64 8, ptr %7) #6
  %111 = load i32, ptr %9, align 4
  switch i32 %111, label %113 [
    i32 0, label %112
    i32 1, label %112
  ]

112:                                              ; preds = %110, %110
  ret void

113:                                              ; preds = %110
  unreachable
}

; Function Attrs: nounwind uwtable
define dso_local void @distribute_restrictinfo_to_rels(ptr noundef %0, ptr noundef %1) #0 {
  %3 = alloca ptr, align 8
  %4 = alloca ptr, align 8
  %5 = alloca ptr, align 8
  %6 = alloca i32, align 4
  store ptr %0, ptr %3, align 8
  store ptr %1, ptr %4, align 8
  call void @llvm.lifetime.start.p0(i64 8, ptr %5) #6
  %7 = load ptr, ptr %4, align 8
  %8 = getelementptr inbounds nuw %struct.RestrictInfo, ptr %7, i32 0, i32 12
  %9 = load ptr, ptr %8, align 8
  store ptr %9, ptr %5, align 8
  %10 = load ptr, ptr %5, align 8
  %11 = icmp eq ptr %10, null
  br i1 %11, label %26, label %12

12:                                               ; preds = %2
  call void @llvm.lifetime.start.p0(i64 4, ptr %6) #6
  %13 = load ptr, ptr %5, align 8
  %14 = call zeroext i1 @bms_get_singleton_member(ptr noundef %13, ptr noundef %6)
  br i1 %14, label %15, label %19

15:                                               ; preds = %12
  %16 = load ptr, ptr %3, align 8
  %17 = load i32, ptr %6, align 4
  %18 = load ptr, ptr %4, align 8
  call void @add_base_clause_to_rel(ptr noundef %16, i32 noundef %17, ptr noundef %18)
  br label %25

19:                                               ; preds = %12
  %20 = load ptr, ptr %4, align 8
  call void @check_hashjoinable(ptr noundef %20)
  %21 = load ptr, ptr %4, align 8
  call void @check_memoizable(ptr noundef %21)
  %22 = load ptr, ptr %3, align 8
  %23 = load ptr, ptr %4, align 8
  %24 = load ptr, ptr %5, align 8
  call void @add_join_clause_to_rels(ptr noundef %22, ptr noundef %23, ptr noundef %24)
  br label %25

25:                                               ; preds = %19, %15
  call void @llvm.lifetime.end.p0(i64 4, ptr %6) #6
  br label %37

26:                                               ; preds = %2
  br label %27

27:                                               ; preds = %26
  br i1 true, label %28, label %30

28:                                               ; preds = %27
  %29 = call zeroext i1 @errstart_cold(i32 noundef 21, ptr noundef null) #7
  br i1 %29, label %32, label %34

30:                                               ; preds = %27
  %31 = call zeroext i1 @errstart(i32 noundef 21, ptr noundef null)
  br i1 %31, label %32, label %34

32:                                               ; preds = %30, %28
  %33 = call i32 (ptr, ...) @errmsg_internal(ptr noundef @.str.2)
  call void @errfinish(ptr noundef @.str.1, i32 noundef 3244, ptr noundef @__func__.distribute_restrictinfo_to_rels)
  br label %34

34:                                               ; preds = %32, %30, %28
  unreachable

35:                                               ; No predecessors!
  br label %36

36:                                               ; preds = %35
  br label %37

37:                                               ; preds = %36, %25
  call void @llvm.lifetime.end.p0(i64 8, ptr %5) #6
  ret void
}