; Function Attrs: nounwind uwtable
define dso_local void @distribute_restrictinfo_to_rels(ptr noundef %0, ptr noundef %1) local_unnamed_addr #0 {
  %3 = alloca i32, align 4
  %4 = getelementptr inbounds nuw i8, ptr %1, i64 48
  %5 = load ptr, ptr %4, align 8
  %6 = icmp eq ptr %5, null
  br i1 %6, label %85, label %7

7:                                                ; preds = %2
  call void @llvm.lifetime.start.p0(i64 4, ptr nonnull %3) #7
  %8 = call zeroext i1 @bms_get_singleton_member(ptr noundef nonnull %5, ptr noundef nonnull %3) #7
  br i1 %8, label %9, label %61

9:                                                ; preds = %7
  %10 = load i32, ptr %3, align 4
  %11 = call ptr @find_base_rel(ptr noundef %0, i32 noundef %10) #7
  %12 = getelementptr inbounds nuw i8, ptr %0, i64 72
  %13 = load ptr, ptr %12, align 8
  %14 = zext i32 %10 to i64
  %15 = getelementptr inbounds nuw ptr, ptr %13, i64 %14
  %16 = load ptr, ptr %15, align 8
  %17 = getelementptr inbounds nuw i8, ptr %16, i64 32
  %18 = load i8, ptr %17, align 8, !range !4, !noundef !5
  %19 = trunc nuw i8 %18 to i1
  br i1 %19, label %20, label %24

20:                                               ; preds = %9
  %21 = getelementptr inbounds nuw i8, ptr %16, i64 33
  %22 = load i8, ptr %21, align 1
  %23 = icmp eq i8 %22, 112
  br i1 %23, label %24, label %53

24:                                               ; preds = %20, %9
  %25 = call zeroext i1 @restriction_is_always_true(ptr noundef nonnull %0, ptr noundef nonnull %1)
  br i1 %25, label %add_base_clause_to_rel.exit, label %26

26:                                               ; preds = %24
  %27 = call zeroext i1 @restriction_is_always_false(ptr noundef nonnull %0, ptr noundef nonnull %1)
  br i1 %27, label %28, label %53

28:                                               ; preds = %26
  %29 = getelementptr inbounds nuw i8, ptr %1, i64 96
  %30 = load i32, ptr %29, align 8
  %31 = getelementptr inbounds nuw i8, ptr %0, i64 232
  %32 = load i32, ptr %31, align 8
  %33 = call ptr @makeBoolConst(i1 noundef zeroext false, i1 noundef zeroext false) #7
  %34 = getelementptr inbounds nuw i8, ptr %1, i64 16
  %35 = load i8, ptr %34, align 8, !range !4, !noundef !5
  %36 = trunc nuw i8 %35 to i1
  %37 = getelementptr inbounds nuw i8, ptr %1, i64 19
  %38 = load i8, ptr %37, align 1, !range !4, !noundef !5
  %39 = trunc nuw i8 %38 to i1
  %40 = getelementptr inbounds nuw i8, ptr %1, i64 20
  %41 = load i8, ptr %40, align 4, !range !4, !noundef !5
  %42 = trunc nuw i8 %41 to i1
  %43 = getelementptr inbounds nuw i8, ptr %1, i64 18
  %44 = load i8, ptr %43, align 2, !range !4, !noundef !5
  %45 = trunc nuw i8 %44 to i1
  %46 = load ptr, ptr %4, align 8
  %47 = getelementptr inbounds nuw i8, ptr %1, i64 56
  %48 = load ptr, ptr %47, align 8
  %49 = getelementptr inbounds nuw i8, ptr %1, i64 64
  %50 = load ptr, ptr %49, align 8
  %51 = call ptr @make_restrictinfo(ptr noundef nonnull %0, ptr noundef %33, i1 noundef zeroext %36, i1 noundef zeroext %39, i1 noundef zeroext %42, i1 noundef zeroext %45, i32 noundef 0, ptr noundef %46, ptr noundef %48, ptr noundef %50) #7
  %52 = getelementptr inbounds nuw i8, ptr %51, i64 96
  store i32 %30, ptr %52, align 8
  store i32 %32, ptr %31, align 8
  br label %53

53:                                               ; preds = %28, %26, %20
  %.0.i = phi ptr [ %51, %28 ], [ %1, %26 ], [ %1, %20 ]
  %54 = getelementptr inbounds nuw i8, ptr %11, i64 296
  %55 = load ptr, ptr %54, align 8
  %56 = call ptr @lappend(ptr noundef %55, ptr noundef nonnull %.0.i) #7
  store ptr %56, ptr %54, align 8
  %57 = getelementptr inbounds nuw i8, ptr %11, i64 320
  %58 = load i32, ptr %57, align 8
  %59 = getelementptr inbounds nuw i8, ptr %.0.i, i64 28
  %60 = load i32, ptr %59, align 4
  %..i = call i32 @llvm.umin.i32(i32 %58, i32 %60)
  store i32 %..i, ptr %57, align 8
  br label %add_base_clause_to_rel.exit

61:                                               ; preds = %7
  %62 = getelementptr inbounds nuw i8, ptr %1, i64 8
  %63 = load ptr, ptr %62, align 8
  %64 = getelementptr inbounds nuw i8, ptr %1, i64 18
  %65 = load i8, ptr %64, align 2, !range !4, !noundef !5
  %66 = trunc nuw i8 %65 to i1
  %.not.i.i = icmp eq ptr %63, null
  %or.cond.i = select i1 %66, i1 true, i1 %.not.i.i
  br i1 %or.cond.i, label %check_hashjoinable.exit, label %is_opclause.exit.i

is_opclause.exit.i:                               ; preds = %61
  %67 = load i32, ptr %63, align 4
  %68 = icmp eq i32 %67, 17
  br i1 %68, label %69, label %check_hashjoinable.exit

69:                                               ; preds = %is_opclause.exit.i
  %70 = getelementptr inbounds nuw i8, ptr %63, i64 32
  %71 = load ptr, ptr %70, align 8
  %.not.i10.i = icmp eq ptr %71, null
  br i1 %.not.i10.i, label %check_hashjoinable.exit, label %list_length.exit.i

list_length.exit.i:                               ; preds = %69
  %72 = getelementptr inbounds nuw i8, ptr %71, i64 4
  %73 = load i32, ptr %72, align 4
  %.not.i = icmp eq i32 %73, 2
  br i1 %.not.i, label %74, label %check_hashjoinable.exit

74:                                               ; preds = %list_length.exit.i
  %75 = getelementptr inbounds nuw i8, ptr %63, i64 4
  %76 = load i32, ptr %75, align 4
  %77 = getelementptr i8, ptr %71, i64 16
  %.val.i = load ptr, ptr %77, align 8
  %78 = load ptr, ptr %.val.i, align 8
  %79 = call i32 @exprType(ptr noundef %78) #7
  %80 = call zeroext i1 @op_hashjoinable(i32 noundef %76, i32 noundef %79) #7
  br i1 %80, label %81, label %check_hashjoinable.exit

81:                                               ; preds = %74
  %82 = call zeroext i1 @contain_volatile_functions(ptr noundef nonnull %1) #7
  br i1 %82, label %check_hashjoinable.exit, label %83

83:                                               ; preds = %81
  %84 = getelementptr inbounds nuw i8, ptr %1, i64 196
  store i32 %76, ptr %84, align 4
  br label %check_hashjoinable.exit

check_hashjoinable.exit:                          ; preds = %61, %is_opclause.exit.i, %69, %list_length.exit.i, %74, %81, %83
  call fastcc void @check_memoizable(ptr noundef nonnull %1)
  call void @add_join_clause_to_rels(ptr noundef %0, ptr noundef nonnull %1, ptr noundef nonnull %5) #7
  br label %add_base_clause_to_rel.exit

add_base_clause_to_rel.exit:                      ; preds = %53, %24, %check_hashjoinable.exit
  call void @llvm.lifetime.end.p0(i64 4, ptr nonnull %3) #7
  ret void

85:                                               ; preds = %2
  %86 = tail call zeroext i1 @errstart_cold(i32 noundef 21, ptr noundef null) #8
  tail call void @llvm.assume(i1 %86)
  %87 = tail call i32 (ptr, ...) @errmsg_internal(ptr noundef nonnull @.str.2) #7
  tail call void @errfinish(ptr noundef nonnull @.str.1, i32 noundef 3244, ptr noundef nonnull @__func__.distribute_restrictinfo_to_rels) #7
  unreachable
}